; Function Attrs: mustprogress uwtable
define hidden void @_ZN4cvc58internal6theory11quantifiers9SygusUnif24constructBestConditionalENS0_12NodeTemplateILb1EEERKSt6vectorIS5_SaIS5_EE(ptr noalias nocapture writeonly sret(%"class.cvc5::internal::NodeTemplate") align 8 %agg.result, ptr nocapture nonnull readnone align 8 %this, ptr nocapture readnone %ce, ptr nocapture noundef nonnull readonly align 8 dereferenceable(24) %conds) unnamed_addr #3 align 2 {
entry:
  %0 = load i8, ptr @_ZGVZN4cvc58internal6Random9getRandomEvE9s_current, align 8
  %guard.uninitialized.i = icmp eq i8 %0, 0
  br i1 %guard.uninitialized.i, label %init.check.i, label %_ZN4cvc58internal6Random9getRandomEv.exit, !prof !9

init.check.i:                                     ; preds = %entry
  tail call void @_ZN4cvc58internal6RandomC1Em(ptr noundef nonnull align 8 dereferenceable(16) @_ZZN4cvc58internal6Random9getRandomEvE9s_current, i64 noundef 0)
  store i8 1, ptr @_ZGVZN4cvc58internal6Random9getRandomEvE9s_current, align 8
  br label %_ZN4cvc58internal6Random9getRandomEv.exit

_ZN4cvc58internal6Random9getRandomEv.exit:        ; preds = %entry, %init.check.i
  %1 = tail call noundef nonnull align 8 dereferenceable(16) ptr @llvm.threadlocal.address.p0(ptr align 8 @_ZZN4cvc58internal6Random9getRandomEvE9s_current)
  %call2 = tail call noundef double @_ZN4cvc58internal6Random10pickDoubleEdd(ptr noundef nonnull align 8 dereferenceable(16) %1, double noundef 0.000000e+00, double noundef 1.000000e+00)
  %_M_finish.i = getelementptr inbounds i8, ptr %conds, i64 8
  %2 = load ptr, ptr %_M_finish.i, align 8
  %3 = load ptr, ptr %conds, align 8
  %sub.ptr.lhs.cast.i = ptrtoint ptr %2 to i64
  %sub.ptr.rhs.cast.i = ptrtoint ptr %3 to i64
  %sub.ptr.sub.i = sub i64 %sub.ptr.lhs.cast.i, %sub.ptr.rhs.cast.i
  %sub.ptr.div.i = ashr exact i64 %sub.ptr.sub.i, 3
  %conv = uitofp i64 %sub.ptr.div.i to double
  %mul = fmul double %call2, %conv
  %conv4 = fptoui double %mul to i32
  %conv5 = zext i32 %conv4 to i64
  %cmp = icmp ult i64 %sub.ptr.div.i, %conv5
  %4 = trunc i64 %sub.ptr.div.i to i32
  %conv8 = add i32 %4, -1
  %cindex.0 = select i1 %cmp, i32 %conv8, i32 %conv4
  %conv9 = zext i32 %cindex.0 to i64
  %add.ptr.i = getelementptr inbounds %"class.cvc5::internal::NodeTemplate", ptr %3, i64 %conv9
  %5 = load ptr, ptr %add.ptr.i, align 8
  store ptr %5, ptr %agg.result, align 8
  %bf.load.i.i = load i64, ptr %5, align 8
  %bf.lshr.i.i = lshr i64 %bf.load.i.i, 40
  %6 = trunc i64 %bf.lshr.i.i to i32
  %bf.cast.i.i = and i32 %6, 1048575
  %cmp.i.i = icmp ult i32 %bf.cast.i.i, 1048574
  br i1 %cmp.i.i, label %if.then.i.i, label %if.else.i.i

if.then.i.i:                                      ; preds = %_ZN4cvc58internal6Random9getRandomEv.exit
  %bf.value.i.i = add i64 %bf.load.i.i, 1099511627776
  %bf.shl.i.i = and i64 %bf.value.i.i, 1152920405095219200
  %bf.clear7.i.i = and i64 %bf.load.i.i, -1152920405095219201
  %bf.set.i.i = or disjoint i64 %bf.shl.i.i, %bf.clear7.i.i
  store i64 %bf.set.i.i, ptr %5, align 8
  br label %_ZN4cvc58internal12NodeTemplateILb1EEC2ERKS2_.exit

if.else.i.i:                                      ; preds = %_ZN4cvc58internal6Random9getRandomEv.exit
  %cmp12.i.i = icmp eq i32 %bf.cast.i.i, 1048574
  br i1 %cmp12.i.i, label %if.then13.i.i, label %_ZN4cvc58internal12NodeTemplateILb1EEC2ERKS2_.exit

if.then13.i.i:                                    ; preds = %if.else.i.i
  %bf.set23.i.i = or i64 %bf.load.i.i, 1152920405095219200
  store i64 %bf.set23.i.i, ptr %5, align 8
  tail call void @_ZN4cvc58internal4expr9NodeValue20markRefCountMaxedOutEv(ptr noundef nonnull align 8 dereferenceable(16) %5)
  br label %_ZN4cvc58internal12NodeTemplateILb1EEC2ERKS2_.exit

_ZN4cvc58internal12NodeTemplateILb1EEC2ERKS2_.exit: ; preds = %if.then.i.i, %if.else.i.i, %if.then13.i.i
  ret void
}